target datalayout = "e-m:e-p270:32:32-p271:32:32-p272:64:64-i64:64-i128:128-f80:128-n8:16:32:64-S128"
target triple = "x86_64-pc-linux-gnu"

%"class.llvm::codeview::TypeIndex" = type { %"struct.llvm::support::detail::packed_endian_specific_integral" }
%"struct.llvm::support::detail::packed_endian_specific_integral" = type { %struct.anon }
%struct.anon = type { [4 x i8] }
%"class.llvm::codeview::ProcedureRecord" = type { %"class.llvm::codeview::TypeRecord", %"class.llvm::codeview::TypeIndex", i8, i8, i16, %"class.llvm::codeview::TypeIndex" }
%"class.llvm::codeview::TypeRecord" = type { i16 }
%"class.llvm::pdb::NativeTypeFunctionSig" = type <{ %"class.llvm::pdb::NativeRawSymbol", %union.anon, i32, %"class.llvm::codeview::TypeIndex", [4 x i8], %"class.llvm::codeview::ArgListRecord", i8, [7 x i8] }>
%"class.llvm::pdb::NativeRawSymbol" = type { %"class.llvm::pdb::IPDBRawSymbol", ptr, i32, i32 }
%"class.llvm::pdb::IPDBRawSymbol" = type { ptr }
%union.anon = type { %"class.llvm::codeview::MemberFunctionRecord" }
%"class.llvm::codeview::MemberFunctionRecord" = type { %"class.llvm::codeview::TypeRecord", %"class.llvm::codeview::TypeIndex", %"class.llvm::codeview::TypeIndex", %"class.llvm::codeview::TypeIndex", i8, i8, i16, %"class.llvm::codeview::TypeIndex", i32 }
%"class.llvm::codeview::ArgListRecord" = type { %"class.llvm::codeview::TypeRecord", %"class.std::vector" }
%"class.std::vector" = type { %"struct.std::_Vector_base" }
%"struct.std::_Vector_base" = type { %"struct.std::_Vector_base<llvm::codeview::TypeIndex, std::allocator<llvm::codeview::TypeIndex>>::_Vector_impl" }
%"struct.std::_Vector_base<llvm::codeview::TypeIndex, std::allocator<llvm::codeview::TypeIndex>>::_Vector_impl" = type { %"struct.std::_Vector_base<llvm::codeview::TypeIndex, std::allocator<llvm::codeview::TypeIndex>>::_Vector_impl_data" }
%"struct.std::_Vector_base<llvm::codeview::TypeIndex, std::allocator<llvm::codeview::TypeIndex>>::_Vector_impl_data" = type { ptr, ptr, ptr }
%"class.llvm::pdb::NativeSession" = type { %"class.llvm::pdb::IPDBSession", %"class.std::unique_ptr", %"class.std::unique_ptr.2", %"class.llvm::pdb::SymbolCache", i32, i64, %"class.llvm::RecyclingAllocator", %"class.llvm::IntervalMap" }
%"class.llvm::pdb::IPDBSession" = type { ptr }
%"class.std::unique_ptr" = type { %"struct.std::__uniq_ptr_data" }
%"struct.std::__uniq_ptr_data" = type { %"class.std::__uniq_ptr_impl" }
%"class.std::__uniq_ptr_impl" = type { %"class.std::tuple" }
%"class.std::tuple" = type { %"struct.std::_Tuple_impl" }
%"struct.std::_Tuple_impl" = type { %"struct.std::_Head_base.1" }
%"struct.std::_Head_base.1" = type { ptr }
%"class.std::unique_ptr.2" = type { %"struct.std::__uniq_ptr_data.3" }
%"struct.std::__uniq_ptr_data.3" = type { %"class.std::__uniq_ptr_impl.4" }
%"class.std::__uniq_ptr_impl.4" = type { %"class.std::tuple.5" }
%"class.std::tuple.5" = type { %"struct.std::_Tuple_impl.6" }
%"struct.std::_Tuple_impl.6" = type { %"struct.std::_Head_base.9" }
%"struct.std::_Head_base.9" = type { ptr }
%"class.llvm::pdb::SymbolCache" = type { ptr, ptr, %"class.std::vector.10", %"class.llvm::DenseMap", %"class.llvm::DenseMap.15", %"class.std::vector.18", %"class.std::vector.23", %"class.llvm::DenseMap.28", %"class.llvm::DenseMap.28", %"class.llvm::DenseMap.31", %"class.llvm::DenseMap.31", %"class.llvm::DenseMap.34", %"class.llvm::DenseMap.37" }
%"class.std::vector.10" = type { %"struct.std::_Vector_base.11" }
%"struct.std::_Vector_base.11" = type { %"struct.std::_Vector_base<std::unique_ptr<llvm::pdb::NativeRawSymbol>, std::allocator<std::unique_ptr<llvm::pdb::NativeRawSymbol>>>::_Vector_impl" }
%"struct.std::_Vector_base<std::unique_ptr<llvm::pdb::NativeRawSymbol>, std::allocator<std::unique_ptr<llvm::pdb::NativeRawSymbol>>>::_Vector_impl" = type { %"struct.std::_Vector_base<std::unique_ptr<llvm::pdb::NativeRawSymbol>, std::allocator<std::unique_ptr<llvm::pdb::NativeRawSymbol>>>::_Vector_impl_data" }
%"struct.std::_Vector_base<std::unique_ptr<llvm::pdb::NativeRawSymbol>, std::allocator<std::unique_ptr<llvm::pdb::NativeRawSymbol>>>::_Vector_impl_data" = type { ptr, ptr, ptr }
%"class.llvm::DenseMap" = type <{ ptr, i32, i32, i32, [4 x i8] }>
%"class.llvm::DenseMap.15" = type <{ ptr, i32, i32, i32, [4 x i8] }>
%"class.std::vector.18" = type { %"struct.std::_Vector_base.19" }
%"struct.std::_Vector_base.19" = type { %"struct.std::_Vector_base<unsigned int, std::allocator<unsigned int>>::_Vector_impl" }
%"struct.std::_Vector_base<unsigned int, std::allocator<unsigned int>>::_Vector_impl" = type { %"struct.std::_Vector_base<unsigned int, std::allocator<unsigned int>>::_Vector_impl_data" }
%"struct.std::_Vector_base<unsigned int, std::allocator<unsigned int>>::_Vector_impl_data" = type { ptr, ptr, ptr }
%"class.std::vector.23" = type { %"struct.std::_Vector_base.24" }
%"struct.std::_Vector_base.24" = type { %"struct.std::_Vector_base<std::unique_ptr<llvm::pdb::NativeSourceFile>, std::allocator<std::unique_ptr<llvm::pdb::NativeSourceFile>>>::_Vector_impl" }
%"struct.std::_Vector_base<std::unique_ptr<llvm::pdb::NativeSourceFile>, std::allocator<std::unique_ptr<llvm::pdb::NativeSourceFile>>>::_Vector_impl" = type { %"struct.std::_Vector_base<std::unique_ptr<llvm::pdb::NativeSourceFile>, std::allocator<std::unique_ptr<llvm::pdb::NativeSourceFile>>>::_Vector_impl_data" }
%"struct.std::_Vector_base<std::unique_ptr<llvm::pdb::NativeSourceFile>, std::allocator<std::unique_ptr<llvm::pdb::NativeSourceFile>>>::_Vector_impl_data" = type { ptr, ptr, ptr }
%"class.llvm::DenseMap.28" = type <{ ptr, i32, i32, i32, [4 x i8] }>
%"class.llvm::DenseMap.31" = type <{ ptr, i32, i32, i32, [4 x i8] }>
%"class.llvm::DenseMap.34" = type <{ ptr, i32, i32, i32, [4 x i8] }>
%"class.llvm::DenseMap.37" = type <{ ptr, i32, i32, i32, [4 x i8] }>
%"class.llvm::RecyclingAllocator" = type { %"class.llvm::Recycler", %"class.llvm::BumpPtrAllocatorImpl" }
%"class.llvm::Recycler" = type { ptr }
%"class.llvm::BumpPtrAllocatorImpl" = type { ptr, ptr, %"class.llvm::SmallVector", %"class.llvm::SmallVector.41", i64, i64 }
%"class.llvm::SmallVector" = type { %"class.llvm::SmallVectorImpl", %"struct.llvm::SmallVectorStorage" }
%"class.llvm::SmallVectorImpl" = type { %"class.llvm::SmallVectorTemplateBase" }
%"class.llvm::SmallVectorTemplateBase" = type { %"class.llvm::SmallVectorTemplateCommon" }
%"class.llvm::SmallVectorTemplateCommon" = type { %"class.llvm::SmallVectorBase" }
%"class.llvm::SmallVectorBase" = type { ptr, i32, i32 }
%"struct.llvm::SmallVectorStorage" = type { [32 x i8] }
%"class.llvm::SmallVector.41" = type { %"class.llvm::SmallVectorImpl.42" }
%"class.llvm::SmallVectorImpl.42" = type { %"class.llvm::SmallVectorTemplateBase.43" }
%"class.llvm::SmallVectorTemplateBase.43" = type { %"class.llvm::SmallVectorTemplateCommon.44" }
%"class.llvm::SmallVectorTemplateCommon.44" = type { %"class.llvm::SmallVectorBase" }
%"class.llvm::IntervalMap" = type { %union.anon.46, i32, i32, ptr }
%union.anon.46 = type { %"class.llvm::IntervalMapImpl::LeafNode" }
%"class.llvm::IntervalMapImpl::LeafNode" = type { %"class.llvm::IntervalMapImpl::NodeBase" }
%"class.llvm::IntervalMapImpl::NodeBase" = type { [8 x %"struct.std::pair"], [8 x i16] }
%"struct.std::pair" = type { i64, i64 }

; Function Attrs: mustprogress nounwind uwtable
define linkonce_odr hidden noundef nonnull align 8 dereferenceable(280) ptr @_ZN4llvm3pdb13NativeSession14getSymbolCacheEv(ptr noundef nonnull align 8 dereferenceable(584) %0) #0 comdat align 2 {
  %2 = alloca ptr, align 8
  store ptr %0, ptr %2, align 8
  %3 = load ptr, ptr %2, align 8
  %4 = getelementptr inbounds nuw %"class.llvm::pdb::NativeSession", ptr %3, i32 0, i32 3
  ret ptr %4
}

; Function Attrs: mustprogress nounwind uwtable
define linkonce_odr hidden i32 @_ZNK4llvm8codeview15ProcedureRecord13getReturnTypeEv(ptr noundef nonnull align 2 dereferenceable(14) %0) #0 comdat align 2 {
  %2 = alloca %"class.llvm::codeview::TypeIndex", align 1
  %3 = alloca ptr, align 8
  store ptr %0, ptr %3, align 8
  %4 = load ptr, ptr %3, align 8
  %5 = getelementptr inbounds nuw %"class.llvm::codeview::ProcedureRecord", ptr %4, i32 0, i32 1
  call void @llvm.memcpy.p0.p0.i64(ptr align 1 %2, ptr align 2 %5, i64 4, i1 false)
  %6 = getelementptr inbounds nuw %"class.llvm::codeview::TypeIndex", ptr %2, i32 0, i32 0
  %7 = getelementptr inbounds nuw %"struct.llvm::support::detail::packed_endian_specific_integral", ptr %6, i32 0, i32 0
  %8 = getelementptr inbounds nuw %struct.anon, ptr %7, i32 0, i32 0
  %9 = load i32, ptr %8, align 1
  ret i32 %9
}

; Function Attrs: mustprogress nounwind uwtable
define linkonce_odr hidden i32 @_ZNK4llvm8codeview20MemberFunctionRecord13getReturnTypeEv(ptr noundef nonnull align 4 dereferenceable(28) %0) #0 comdat align 2 {
  %2 = alloca %"class.llvm::codeview::TypeIndex", align 1
  %3 = alloca ptr, align 8
  store ptr %0, ptr %3, align 8
  %4 = load ptr, ptr %3, align 8
  %5 = getelementptr inbounds nuw %"class.llvm::codeview::MemberFunctionRecord", ptr %4, i32 0, i32 1
  call void @llvm.memcpy.p0.p0.i64(ptr align 1 %2, ptr align 2 %5, i64 4, i1 false)
  %6 = getelementptr inbounds nuw %"class.llvm::codeview::TypeIndex", ptr %2, i32 0, i32 0
  %7 = getelementptr inbounds nuw %"struct.llvm::support::detail::packed_endian_specific_integral", ptr %6, i32 0, i32 0
  %8 = getelementptr inbounds nuw %struct.anon, ptr %7, i32 0, i32 0
  %9 = load i32, ptr %8, align 1
  ret i32 %9
}

; Function Attrs: mustprogress nounwind uwtable
define dso_local noundef i32 @_ZNK4llvm3pdb21NativeTypeFunctionSig9getTypeIdEv(ptr noundef nonnull align 8 dereferenceable(97) %0) unnamed_addr #0 align 2 {
  %2 = alloca ptr, align 8
  %3 = alloca %"class.llvm::codeview::TypeIndex", align 1
  %4 = alloca i32, align 4
  %5 = alloca %"class.llvm::codeview::TypeIndex", align 1
  store ptr %0, ptr %2, align 8
  %6 = load ptr, ptr %2, align 8
  %7 = getelementptr inbounds nuw %"class.llvm::pdb::NativeTypeFunctionSig", ptr %6, i32 0, i32 6
  %8 = load i8, ptr %7, align 8
  %9 = trunc i8 %8 to i1
  br i1 %9, label %10, label %16

10:                                               ; preds = %1
  %11 = getelementptr inbounds nuw %"class.llvm::pdb::NativeTypeFunctionSig", ptr %6, i32 0, i32 1
  %12 = call i32 @_ZNK4llvm8codeview20MemberFunctionRecord13getReturnTypeEv(ptr noundef nonnull align 4 dereferenceable(28) %11)
  %13 = getelementptr inbounds nuw %"class.llvm::codeview::TypeIndex", ptr %3, i32 0, i32 0
  %14 = getelementptr inbounds nuw %"struct.llvm::support::detail::packed_endian_specific_integral", ptr %13, i32 0, i32 0
  %15 = getelementptr inbounds nuw %struct.anon, ptr %14, i32 0, i32 0
  store i32 %12, ptr %15, align 1
  br label %22

16:                                               ; preds = %1
  %17 = getelementptr inbounds nuw %"class.llvm::pdb::NativeTypeFunctionSig", ptr %6, i32 0, i32 1
  %18 = call i32 @_ZNK4llvm8codeview15ProcedureRecord13getReturnTypeEv(ptr noundef nonnull align 2 dereferenceable(14) %17)
  %19 = getelementptr inbounds nuw %"class.llvm::codeview::TypeIndex", ptr %3, i32 0, i32 0
  %20 = getelementptr inbounds nuw %"struct.llvm::support::detail::packed_endian_specific_integral", ptr %19, i32 0, i32 0
  %21 = getelementptr inbounds nuw %struct.anon, ptr %20, i32 0, i32 0
  store i32 %18, ptr %21, align 1
  br label %22

22:                                               ; preds = %16, %10
  %23 = getelementptr inbounds nuw %"class.llvm::pdb::NativeRawSymbol", ptr %6, i32 0, i32 1
  %24 = load ptr, ptr %23, align 8
  %25 = call noundef nonnull align 8 dereferenceable(280) ptr @_ZN4llvm3pdb13NativeSession14getSymbolCacheEv(ptr noundef nonnull align 8 dereferenceable(584) %24)
  call void @llvm.memcpy.p0.p0.i64(ptr align 1 %5, ptr align 1 %3, i64 4, i1 false)
  %26 = getelementptr inbounds nuw %"class.llvm::codeview::TypeIndex", ptr %5, i32 0, i32 0
  %27 = getelementptr inbounds nuw %"struct.llvm::support::detail::packed_endian_specific_integral", ptr %26, i32 0, i32 0
  %28 = getelementptr inbounds nuw %struct.anon, ptr %27, i32 0, i32 0
  %29 = load i32, ptr %28, align 1
  %30 = call noundef i32 @_ZNK4llvm3pdb11SymbolCache21findSymbolByTypeIndexENS_8codeview9TypeIndexE(ptr noundef nonnull align 8 dereferenceable(280) %25, i32 %29)
  store i32 %30, ptr %4, align 4
  %31 = load i32, ptr %4, align 4
  ret i32 %31
}