; Function Attrs: mustprogress nounwind uwtable
define dso_local noundef i32 @_ZNK4llvm3pdb21NativeTypeFunctionSig9getTypeIdEv(ptr nocapture noundef nonnull readonly align 8 dereferenceable(97) %0) unnamed_addr #0 align 2 {
  %2 = getelementptr inbounds i8, ptr %0, i64 26
  %.sroa.0.0.copyload.i = load i32, ptr %2, align 2
  %3 = getelementptr inbounds nuw i8, ptr %0, i64 8
  %4 = load ptr, ptr %3, align 8
  %5 = getelementptr inbounds nuw i8, ptr %4, i64 24
  %6 = tail call noundef i32 @_ZNK4llvm3pdb11SymbolCache21findSymbolByTypeIndexENS_8codeview9TypeIndexE(ptr noundef nonnull align 8 dereferenceable(280) %5, i32 %.sroa.0.0.copyload.i) #14
  ret i32 %6
}